; Function Attrs: mustprogress uwtable
define void @_ZN7Imf_3_213RgbaInputFile12setLayerNameERKNSt7__cxx1112basic_stringIcSt11char_traitsIcESaIcEEE(ptr noundef nonnull align 8 dereferenceable(64) %this, ptr noundef nonnull align 8 dereferenceable(32) %layerName) local_unnamed_addr #3 align 2 personality ptr @__gxx_personality_v0 {
entry:
  %ref.tmp = alloca %"class.std::__cxx11::basic_string", align 8
  %fb = alloca %"class.Imf_3_2::FrameBuffer", align 8
  %_fromYca = getelementptr inbounds i8, ptr %this, i64 24
  %0 = load ptr, ptr %_fromYca, align 8
  %isnull = icmp eq ptr %0, null
  br i1 %isnull, label %delete.end, label %delete.notnull

delete.notnull:                                   ; preds = %entry
  %_bufBase.i = getelementptr inbounds i8, ptr %0, i64 96
  %1 = load ptr, ptr %_bufBase.i, align 8
  %isnull.i = icmp eq ptr %1, null
  br i1 %isnull.i, label %delete.end.i, label %delete.notnull.i

delete.notnull.i:                                 ; preds = %delete.notnull
  tail call void @_ZdaPv(ptr noundef nonnull %1) #24
  br label %delete.end.i

delete.end.i:                                     ; preds = %delete.notnull.i, %delete.notnull
  %_tmpBuf.i = getelementptr inbounds i8, ptr %0, i64 360
  %2 = load ptr, ptr %_tmpBuf.i, align 8
  %isnull2.i = icmp eq ptr %2, null
  br i1 %isnull2.i, label %_ZN7Imf_3_213RgbaInputFile7FromYcaD2Ev.exit, label %delete.notnull3.i

delete.notnull3.i:                                ; preds = %delete.end.i
  tail call void @_ZdaPv(ptr noundef nonnull %2) #24
  br label %_ZN7Imf_3_213RgbaInputFile7FromYcaD2Ev.exit

_ZN7Imf_3_213RgbaInputFile7FromYcaD2Ev.exit:      ; preds = %delete.end.i, %delete.notnull3.i
  tail call void @_ZdlPv(ptr noundef nonnull %0) #24
  br label %delete.end

delete.end:                                       ; preds = %_ZN7Imf_3_213RgbaInputFile7FromYcaD2Ev.exit, %entry
  store ptr null, ptr %_fromYca, align 8
  %_inputPart = getelementptr inbounds i8, ptr %this, i64 16
  %3 = load ptr, ptr %_inputPart, align 8
  %call = tail call noundef nonnull align 8 dereferenceable(49) ptr @_ZNK7Imf_3_29InputPart6headerEv(ptr noundef nonnull align 8 dereferenceable(8) %3)
  call fastcc void @_ZN7Imf_3_212_GLOBAL__N_119prefixFromLayerNameERKNSt7__cxx1112basic_stringIcSt11char_traitsIcESaIcEEERKNS_6HeaderE(ptr noalias nonnull align 8 %ref.tmp, ptr noundef nonnull align 8 dereferenceable(32) %layerName, ptr noundef nonnull align 8 dereferenceable(49) %call)
  %_channelNamePrefix = getelementptr inbounds i8, ptr %this, i64 32
  %call3 = call noundef nonnull align 8 dereferenceable(32) ptr @_ZNSt7__cxx1112basic_stringIcSt11char_traitsIcESaIcEEaSEOS4_(ptr noundef nonnull align 8 dereferenceable(32) %_channelNamePrefix, ptr noundef nonnull align 8 dereferenceable(32) %ref.tmp) #25
  call void @_ZNSt7__cxx1112basic_stringIcSt11char_traitsIcESaIcEED1Ev(ptr noundef nonnull align 8 dereferenceable(32) %ref.tmp) #25
  %4 = load ptr, ptr %_inputPart, align 8
  %call.i = call noundef nonnull align 8 dereferenceable(49) ptr @_ZNK7Imf_3_29InputPart6headerEv(ptr noundef nonnull align 8 dereferenceable(8) %4)
  %call2.i = call noundef nonnull align 8 dereferenceable(48) ptr @_ZNK7Imf_3_26Header8channelsEv(ptr noundef nonnull align 8 dereferenceable(49) %call.i)
  %call3.i = call fastcc noundef i32 @_ZN7Imf_3_212_GLOBAL__N_112rgbaChannelsERKNS_11ChannelListERKNSt7__cxx1112basic_stringIcSt11char_traitsIcESaIcEEE(ptr noundef nonnull align 8 dereferenceable(48) %call2.i, ptr noundef nonnull align 8 dereferenceable(32) %_channelNamePrefix), !range !15
  %tobool.not = icmp ult i32 %call3.i, 32
  br i1 %tobool.not, label %if.end, label %if.then

if.then:                                          ; preds = %delete.end
  %call5 = call noalias noundef nonnull dereferenceable(392) ptr @_Znwm(i64 noundef 392) #23
  %5 = load ptr, ptr %_inputPart, align 8
  invoke void @_ZN7Imf_3_213RgbaInputFile7FromYcaC2ERNS_9InputPartENS_12RgbaChannelsE(ptr noundef nonnull align 8 dereferenceable(392) %call5, ptr noundef nonnull align 8 dereferenceable(8) %5, i32 noundef %call3.i)
          to label %invoke.cont unwind label %lpad

invoke.cont:                                      ; preds = %if.then
  store ptr %call5, ptr %_fromYca, align 8
  br label %if.end

lpad:                                             ; preds = %if.then
  %6 = landingpad { ptr, i32 }
          cleanup
  call void @_ZdlPv(ptr noundef nonnull %call5) #24
  br label %eh.resume

if.end:                                           ; preds = %invoke.cont, %delete.end
  %7 = getelementptr inbounds i8, ptr %fb, i64 8
  store i32 0, ptr %7, align 8
  %_M_parent.i.i.i.i.i.i = getelementptr inbounds i8, ptr %fb, i64 16
  store ptr null, ptr %_M_parent.i.i.i.i.i.i, align 8
  %_M_left.i.i.i.i.i.i = getelementptr inbounds i8, ptr %fb, i64 24
  store ptr %7, ptr %_M_left.i.i.i.i.i.i, align 8
  %_M_right.i.i.i.i.i.i = getelementptr inbounds i8, ptr %fb, i64 32
  store ptr %7, ptr %_M_right.i.i.i.i.i.i, align 8
  %_M_node_count.i.i.i.i.i.i = getelementptr inbounds i8, ptr %fb, i64 40
  store i64 0, ptr %_M_node_count.i.i.i.i.i.i, align 8
  %8 = load ptr, ptr %_inputPart, align 8
  invoke void @_ZN7Imf_3_29InputPart14setFrameBufferERKNS_11FrameBufferE(ptr noundef nonnull align 8 dereferenceable(8) %8, ptr noundef nonnull align 8 dereferenceable(48) %fb)
          to label %invoke.cont10 unwind label %lpad9

invoke.cont10:                                    ; preds = %if.end
  %9 = load ptr, ptr %_M_parent.i.i.i.i.i.i, align 8
  invoke void @_ZNSt8_Rb_treeIN7Imf_3_24NameESt4pairIKS1_NS0_5SliceEESt10_Select1stIS5_ESt4lessIS1_ESaIS5_EE8_M_eraseEPSt13_Rb_tree_nodeIS5_E(ptr noundef nonnull align 8 dereferenceable(48) %fb, ptr noundef %9)
          to label %_ZN7Imf_3_211FrameBufferD2Ev.exit unwind label %terminate.lpad.i.i.i

terminate.lpad.i.i.i:                             ; preds = %invoke.cont10
  %10 = landingpad { ptr, i32 }
          catch ptr null
  %11 = extractvalue { ptr, i32 } %10, 0
  call void @__clang_call_terminate(ptr %11) #26
  unreachable

_ZN7Imf_3_211FrameBufferD2Ev.exit:                ; preds = %invoke.cont10
  ret void

lpad9:                                            ; preds = %if.end
  %12 = landingpad { ptr, i32 }
          cleanup
  call void @_ZN7Imf_3_211FrameBufferD2Ev(ptr noundef nonnull align 8 dereferenceable(48) %fb) #25
  br label %eh.resume

eh.resume:                                        ; preds = %lpad9, %lpad
  %.pn = phi { ptr, i32 } [ %12, %lpad9 ], [ %6, %lpad ]
  resume { ptr, i32 } %.pn
}